Certificate:
    Data:
        Version: 3 (0x2)
        Serial Number:
            6c:d2:f2:de:f3:1e:0d:05:12:2d:54:44:54:e4:9c:f0:49:58:3e:84
        Signature Algorithm: sha256WithRSAEncryption
        Issuer: C=IT, ST=Sicily, L=Catania, O=Redis, OU=Security, CN=127.0.0.1
        Validity
            Not Before: Aug 21 03:19:15 2020 GMT
            Not After : Nov 11 03:19:15 2054 GMT
        Subject: C=IT, ST=Sicily, O=Redis, OU=Security, CN=127.0.0.1
        Subject Public Key Info:
            Public Key Algorithm: rsaEncryption
                RSA Public-Key: (2048 bit)
                Modulus:
                    00:e0:e6:bf:ae:5a:e7:f7:01:4a:53:dd:4b:d8:d2:
                    47:5b:20:b4:01:31:c2:bf:0a:07:e6:2a:60:a8:bf:
                    1f:01:3a:3f:b0:96:8b:0a:1a:2c:88:b9:bb:dc:3b:
                    e7:9c:86:bd:43:f1:87:0d:56:5c:cf:58:31:ec:a4:
                    91:0b:a8:2c:76:57:f0:c4:98:c7:f8:bd:74:b2:d5:
                    30:ff:12:e3:2a:f0:c3:e9:18:81:9f:d1:43:46:c2:
                    89:61:3b:62:cb:8a:6b:21:a5:8a:59:4c:af:c8:8e:
                    d2:3d:4a:77:7f:ac:f6:69:f6:e4:b7:47:30:a2:30:
                    a0:2c:21:6b:a3:f8:c3:de:f1:63:62:09:72:71:38:
                    6d:02:5b:3a:3d:03:22:67:36:4f:97:91:55:e0:9c:
                    c7:e8:63:bf:2c:d9:8d:53:fe:ae:d0:de:10:87:ef:
                    99:76:84:4e:bb:a6:fe:22:3e:09:98:54:2d:e7:a3:
                    54:a4:57:b2:53:a9:df:56:da:b5:1b:be:7f:e3:ae:
                    08:f8:f8:20:33:4f:29:4b:6d:24:d1:10:c4:e0:05:
                    25:07:cb:be:6d:c7:ff:89:e0:17:77:76:db:cb:4d:
                    75:e7:13:c1:6f:1f:5f:a4:9b:4c:b8:a9:38:e9:0a:
                    39:de:41:45:96:71:6b:eb:7a:27:6f:92:93:b0:aa:
                    35:71
                Exponent: 65537 (0x10001)
        X509v3 extensions:
            X509v3 Basic Constraints: 
                CA:FALSE
            Netscape Comment: 
                OpenSSL Generated Certificate
            X509v3 Subject Key Identifier: 
                56:AD:FB:49:9F:F6:B2:C0:07:21:57:D7:CE:6A:B2:ED:D7:30:74:57
            X509v3 Authority Key Identifier: 
                keyid:46:9A:22:5C:67:A4:D4:39:36:1F:77:4B:A8:41:75:62:7B:4B:B0:E7

    Signature Algorithm: sha256WithRSAEncryption
         5f:29:4e:fc:07:63:13:fd:84:91:90:cb:c5:f5:76:b2:b9:98:
         15:42:d4:ef:44:fc:7a:60:35:9a:fb:ac:d4:c1:18:5b:c3:19:
         b3:4b:29:ee:e2:15:85:d5:1b:05:f5:62:86:87:aa:81:86:42:
         12:25:ac:9e:f3:c6:51:c3:3d:0e:d2:00:db:74:bb:0f:d0:5f:
         bb:c5:8f:8f:79:45:0b:78:82:40:0c:fb:aa:fc:ef:5e:48:6c:
         e9:2b:4c:ac:a5:ab:e6:18:d7:8b:a6:4f:44:31:d3:81:d9:71:
         2d:ed:76:9b:91:f5:ca:38:4e:ad:a9:66:00:a7:27:31:74:65:
         11:a9:fa:11:91:03:d5:64:f5:43:98:6b:31:e5:f2:87:8c:4f:
         52:8a:5c:a7:92:07:89:ab:44:8a:c4:87:07:1f:6a:f6:e4:7c:
         42:31:bf:47:1a:5c:98:00:d2:aa:6c:75:ba:3d:24:9b:f3:e4:
         04:c8:28:ea:97:4d:47:99:fc:69:f8:2c:62:44:a9:c8:82:0b:
         26:85:bd:fb:e4:97:df:58:73:bf:09:1e:5d:73:05:16:42:47:
         02:fb:b8:9d:81:1f:23:8b:b5:6c:5b:02:6d:3f:07:44:44:24:
         19:ec:6e:57:10:7e:4a:cc:ac:18:79:e0:08:67:cd:6c:ee:61:
         fb:7d:46:22
-----BEGIN CERTIFICATE-----
MIIDxzCCAq+gAwIBAgIUbNLy3vMeDQUSLVREVOSc8ElYPoQwDQYJKoZIhvcNAQEL
BQAwZzELMAkGA1UEBhMCSVQxDzANBgNVBAgMBlNpY2lseTEQMA4GA1UEBwwHQ2F0
YW5pYTEOMAwGA1UECgwFUmVkaXMxETAPBgNVBAsMCFNlY3VyaXR5MRIwEAYDVQQD
DAkxMjcuMC4wLjEwIBcNMjAwODIxMDMxOTE1WhgPMjA1NDExMTEwMzE5MTVaMFUx
CzAJBgNVBAYTAklUMQ8wDQYDVQQIDAZTaWNpbHkxDjAMBgNVBAoMBVJlZGlzMREw
DwYDVQQLDAhTZWN1cml0eTESMBAGA1UEAwwJMTI3LjAuMC4xMIIBIjANBgkqhkiG
9w0BAQEFAAOCAQ8AMIIBCgKCAQEA4Oa/rlrn9wFKU91L2NJHWyC0ATHCvwoH5ipg
qL8fATo/sJaLChosiLm73DvnnIa9Q/GHDVZcz1gx7KSRC6gsdlfwxJjH+L10stUw
/xLjKvDD6RiBn9FDRsKJYTtiy4prIaWKWUyvyI7SPUp3f6z2afbkt0cwojCgLCFr
o/jD3vFjYglycThtAls6PQMiZzZPl5FV4JzH6GO/LNmNU/6u0N4Qh++ZdoROu6b+
Ij4JmFQt56NUpFeyU6nfVtq1G75/464I+PggM08pS20k0RDE4AUlB8u+bcf/ieAX
d3bby0115xPBbx9fpJtMuKk46Qo53kFFlnFr63onb5KTsKo1cQIDAQABo3sweTAJ
BgNVHRMEAjAAMCwGCWCGSAGG+EIBDQQfFh1PcGVuU1NMIEdlbmVyYXRlZCBDZXJ0
aWZpY2F0ZTAdBgNVHQ4EFgQUVq37SZ/2ssAHIVfXzmqy7dcwdFcwHwYDVR0jBBgw
FoAURpoiXGek1Dk2H3dLqEF1YntLsOcwDQYJKoZIhvcNAQELBQADggEBAF8pTvwH
YxP9hJGQy8X1drK5mBVC1O9E/HpgNZr7rNTBGFvDGbNLKe7iFYXVGwX1YoaHqoGG
QhIlrJ7zxlHDPQ7SANt0uw/QX7vFj495RQt4gkAM+6r8715IbOkrTKylq+YY14um
T0Qx04HZcS3tdpuR9co4Tq2pZgCnJzF0ZRGp+hGRA9Vk9UOYazHl8oeMT1KKXKeS
B4mrRIrEhwcfavbkfEIxv0caXJgA0qpsdbo9JJvz5ATIKOqXTUeZ/Gn4LGJEqciC
CyaFvfvkl99Yc78JHl1zBRZCRwL7uJ2BHyOLtWxbAm0/B0REJBnsblcQfkrMrBh5
4AhnzWzuYft9RiI=
-----END CERTIFICATE-----
