Certificate:
    Data:
        Version: 3 (0x2)
        Serial Number:
            0d:15:cb:66:e0:34:6b:99:27:79:be:de:f2:f2:b1:16:10:a7:6b:06
        Signature Algorithm: sha256WithRSAEncryption
        Issuer: C=XX, ST=Untrusted, L=Evilville, O=Evil Hacker, OU=Attack Department, CN=127.0.0.1
        Validity
            Not Before: Aug 21 03:19:25 2020 GMT
            Not After : Nov 11 03:19:25 2054 GMT
        Subject: C=XX, ST=Untrusted, O=Evil Hacker, OU=Attack Department, CN=127.0.0.1
        Subject Public Key Info:
            Public Key Algorithm: rsaEncryption
                RSA Public-Key: (2048 bit)
                Modulus:
                    00:c4:9c:33:ed:3d:fe:f9:0c:b7:46:56:04:a8:56:
                    0e:3b:55:34:a5:e2:22:ab:90:e9:f1:f9:25:44:01:
                    74:00:cb:25:27:e4:53:21:14:91:2b:9a:00:60:31:
                    6f:e7:65:88:93:99:5c:0b:b7:44:b0:b1:b6:5f:5d:
                    d2:db:ab:84:51:31:2a:c3:73:67:a0:aa:04:47:c5:
                    60:5b:2f:39:fa:09:3b:09:47:97:ae:a8:ec:a1:7e:
                    d1:22:7c:f1:1c:6d:b5:fe:3d:6e:96:fb:b4:70:25:
                    81:94:50:c9:ac:6f:dc:cd:5d:f9:1e:ed:18:8a:57:
                    3a:05:7f:f1:dd:12:af:86:b7:8e:b7:5d:2c:d7:c0:
                    6f:6d:98:5f:40:e4:fa:a3:ed:2c:43:a0:ac:6a:6a:
                    6c:41:e8:84:d2:1c:59:63:ec:d0:a5:c7:1f:50:85:
                    e3:a8:54:95:bd:04:cb:99:5c:2a:6d:ee:04:ad:d7:
                    93:89:37:7c:a2:fd:f6:4e:c2:7a:4c:b2:f3:82:13:
                    c3:a7:ef:c3:5a:ce:fb:de:08:b7:57:fb:18:c2:57:
                    40:9b:1a:b1:00:85:49:5e:93:c9:9c:02:1f:e9:76:
                    76:0f:59:2e:84:be:31:bd:09:73:c8:a3:92:23:3a:
                    c0:03:99:d9:7e:98:9a:83:ea:69:39:69:d2:e0:b2:
                    48:0b
                Exponent: 65537 (0x10001)
        X509v3 extensions:
            X509v3 Basic Constraints: 
                CA:FALSE
            Netscape Comment: 
                OpenSSL Generated Certificate
            X509v3 Subject Key Identifier: 
                E9:0A:98:2C:F0:CA:F7:5B:4B:D4:2C:64:62:44:65:17:5D:AE:71:0E
            X509v3 Authority Key Identifier: 
                keyid:2E:46:12:EF:76:A6:45:22:CA:18:71:D8:10:DC:04:A7:8C:6E:6E:F6

    Signature Algorithm: sha256WithRSAEncryption
         a9:0a:60:a5:79:13:e8:ba:90:0e:49:73:59:bb:28:29:1c:36:
         29:ff:dd:16:11:5c:8e:a3:dd:7c:9a:cc:26:df:f4:07:23:79:
         5f:30:b9:e3:47:33:25:92:ce:ef:6d:37:a5:01:f5:a2:58:32:
         a9:24:7b:df:22:fb:c4:c5:e2:92:ac:94:ab:c5:38:ef:70:21:
         dd:a2:b4:9e:49:d9:32:23:87:ef:44:69:23:63:6f:96:73:73:
         b3:3d:ba:52:b9:94:dc:5d:50:13:d0:8d:af:6d:34:98:c0:ad:
         e1:b6:78:06:85:2a:e0:2c:a6:d0:f7:f4:79:79:04:72:ea:3b:
         3c:43:0f:9e:5f:c5:11:64:9a:93:cb:df:0d:e6:3a:bc:5a:9c:
         0e:6d:4b:2e:c3:5d:d9:8e:8d:93:8b:48:fa:85:87:ce:4b:88:
         45:a7:c3:e2:eb:26:28:09:9f:58:cd:b0:a8:fb:4a:51:d8:13:
         18:50:31:9e:20:0e:26:4c:be:10:54:62:34:2a:ca:23:88:0d:
         81:6a:65:37:1c:14:b3:bf:63:11:cd:0b:1b:a2:fd:1e:f8:55:
         82:e8:92:1f:59:f2:07:90:32:a4:c0:f9:cb:b8:9d:b2:f7:26:
         73:0b:24:54:44:0a:96:20:f8:bd:4b:2b:ef:6b:79:00:c0:d8:
         1f:24:50:b3
-----BEGIN CERTIFICATE-----
MIID7TCCAtWgAwIBAgIUDRXLZuA0a5kneb7e8vKxFhCnawYwDQYJKoZIhvcNAQEL
BQAwezELMAkGA1UEBhMCWFgxEjAQBgNVBAgMCVVudHJ1c3RlZDESMBAGA1UEBwwJ
RXZpbHZpbGxlMRQwEgYDVQQKDAtFdmlsIEhhY2tlcjEaMBgGA1UECwwRQXR0YWNr
IERlcGFydG1lbnQxEjAQBgNVBAMMCTEyNy4wLjAuMTAgFw0yMDA4MjEwMzE5MjVa
GA8yMDU0MTExMTAzMTkyNVowZzELMAkGA1UEBhMCWFgxEjAQBgNVBAgMCVVudHJ1
c3RlZDEUMBIGA1UECgwLRXZpbCBIYWNrZXIxGjAYBgNVBAsMEUF0dGFjayBEZXBh
cnRtZW50MRIwEAYDVQQDDAkxMjcuMC4wLjEwggEiMA0GCSqGSIb3DQEBAQUAA4IB
DwAwggEKAoIBAQDEnDPtPf75DLdGVgSoVg47VTSl4iKrkOnx+SVEAXQAyyUn5FMh
FJErmgBgMW/nZYiTmVwLt0SwsbZfXdLbq4RRMSrDc2egqgRHxWBbLzn6CTsJR5eu
qOyhftEifPEcbbX+PW6W+7RwJYGUUMmsb9zNXfke7RiKVzoFf/HdEq+Gt463XSzX
wG9tmF9A5Pqj7SxDoKxqamxB6ITSHFlj7NClxx9QheOoVJW9BMuZXCpt7gSt15OJ
N3yi/fZOwnpMsvOCE8On78NazvveCLdX+xjCV0CbGrEAhUlek8mcAh/pdnYPWS6E
vjG9CXPIo5IjOsADmdl+mJqD6mk5adLgskgLAgMBAAGjezB5MAkGA1UdEwQCMAAw
LAYJYIZIAYb4QgENBB8WHU9wZW5TU0wgR2VuZXJhdGVkIENlcnRpZmljYXRlMB0G
A1UdDgQWBBTpCpgs8Mr3W0vULGRiRGUXXa5xDjAfBgNVHSMEGDAWgBQuRhLvdqZF
IsoYcdgQ3ASnjG5u9jANBgkqhkiG9w0BAQsFAAOCAQEAqQpgpXkT6LqQDklzWbso
KRw2Kf/dFhFcjqPdfJrMJt/0ByN5XzC540czJZLO7203pQH1olgyqSR73yL7xMXi
kqyUq8U473Ah3aK0nknZMiOH70RpI2NvlnNzsz26UrmU3F1QE9CNr200mMCt4bZ4
BoUq4Cym0Pf0eXkEcuo7PEMPnl/FEWSak8vfDeY6vFqcDm1LLsNd2Y6Nk4tI+oWH
zkuIRafD4usmKAmfWM2wqPtKUdgTGFAxniAOJky+EFRiNCrKI4gNgWplNxwUs79j
Ec0LG6L9HvhVguiSH1nyB5AypMD5y7idsvcmcwskVEQKliD4vUsr72t5AMDYHyRQ
sw==
-----END CERTIFICATE-----
